Certificate:
    Data:
        Version: 3 (0x2)
        Serial Number:
            67:7a:4f:f8:0e:88:b2:35:a2:b9:3f:21:44:3a:8b:84
        Signature Algorithm: sha256WithRSAEncryption
        Issuer: CN=vpn.itb.ac.id
        Validity
            Not Before: May  6 01:25:51 2022 GMT
            Not After : May  3 01:25:51 2032 GMT
        Subject: CN=client-vpn
        Subject Public Key Info:
            Public Key Algorithm: rsaEncryption
                RSA Public-Key: (2048 bit)
                Modulus:
                    00:b6:c0:ff:5c:91:c8:45:84:df:dd:4f:fb:86:b4:
                    fc:bf:65:20:d1:5b:ee:d8:ab:b4:4c:cb:6f:19:ac:
                    25:55:41:dd:26:c2:97:6d:4b:ff:de:20:f9:95:30:
                    d0:b9:a0:c0:3e:11:4f:2d:c8:a1:21:9b:96:64:5c:
                    67:d2:90:67:87:d3:1d:39:44:bd:21:5c:5b:73:a3:
                    d9:7a:09:b1:2b:3e:f9:0c:cf:27:52:e1:dd:d6:f4:
                    9e:b4:ee:19:47:bc:67:0b:45:13:64:b5:ab:7d:4f:
                    c0:60:13:05:06:e6:69:20:20:40:f4:d7:f1:88:9d:
                    41:92:92:b5:0c:14:6b:31:11:3a:38:a4:af:89:84:
                    84:d8:9d:09:0d:79:28:68:b7:dc:ea:90:1f:16:4e:
                    0e:e0:ef:96:ee:c4:0e:b2:91:c9:9e:3b:c9:5b:56:
                    f9:63:88:2f:f2:6d:a1:61:89:a3:d0:7a:e7:44:bb:
                    06:11:98:c0:88:7b:b3:ca:54:56:59:69:7d:d2:79:
                    af:90:d0:f1:39:6e:b4:5d:7e:01:4a:00:fc:2b:f2:
                    ee:54:bb:95:f7:ca:c9:14:db:c9:de:b9:28:51:8b:
                    ff:d8:79:0b:e6:14:48:55:78:60:df:07:32:5d:c4:
                    3f:66:7b:c4:8f:a0:b0:a3:e1:ed:19:1b:87:03:e5:
                    84:e1
                Exponent: 65537 (0x10001)
        X509v3 extensions:
            X509v3 Basic Constraints: 
                CA:FALSE
            X509v3 Subject Key Identifier: 
                B0:B9:C8:5F:15:8D:4A:45:D2:A7:C4:FC:ED:F8:B7:35:4B:D8:1C:F6
            X509v3 Authority Key Identifier: 
                keyid:E4:70:50:91:59:F2:21:9E:28:CD:BF:2E:9F:EE:AE:2B:B2:07:A2:3F
                DirName:/CN=vpn.itb.ac.id
                serial:63:F5:9B:32:BF:6F:CE:27:44:2F:FA:21:48:B6:91:8E:53:72:0A:37

            X509v3 Extended Key Usage: 
                TLS Web Client Authentication
            X509v3 Key Usage: 
                Digital Signature
    Signature Algorithm: sha256WithRSAEncryption
         63:68:28:80:ca:57:0a:fd:a6:fa:62:c3:ed:99:70:83:16:5e:
         fb:18:16:b9:bd:c9:23:09:97:2c:51:96:e5:96:e8:08:54:d4:
         80:ad:73:fd:6a:1c:7e:c6:c4:af:68:4c:b2:78:00:59:6a:73:
         29:36:bc:25:f9:18:b0:93:39:47:ad:c0:71:67:80:30:04:ea:
         23:e2:c7:26:0d:14:45:48:43:04:30:d7:bd:0b:cf:5e:a4:cb:
         8d:1d:04:1e:d4:1b:be:d1:28:9b:61:31:19:79:18:31:4f:72:
         8c:03:be:f1:38:50:dd:4e:a4:35:7b:f4:c2:4f:af:cc:a7:9a:
         0d:bf:8a:b8:7e:5b:99:11:96:66:d1:3d:ea:d7:5f:c8:66:e3:
         01:49:53:8c:85:7c:38:8e:a2:a4:43:81:05:5e:72:ad:bb:ad:
         21:67:48:dc:38:0d:e5:4a:b6:ab:d6:9d:06:f4:db:72:d8:24:
         9b:04:7d:57:61:07:ab:51:97:89:14:f6:a9:ad:25:22:aa:f7:
         40:f0:78:d9:92:66:45:90:ea:5d:b7:ba:1d:2c:f6:08:c5:21:
         6c:e5:46:b3:cf:77:3c:30:ef:2a:8d:eb:f9:e8:7a:c2:ed:9f:
         e3:7a:60:d4:bc:a8:2e:89:85:fa:f0:18:9d:ee:84:85:21:3c:
         9e:14:23:4e
-----BEGIN CERTIFICATE-----
MIIDXDCCAkSgAwIBAgIQZ3pP+A6IsjWiuT8hRDqLhDANBgkqhkiG9w0BAQsFADAY
MRYwFAYDVQQDDA12cG4uaXRiLmFjLmlkMB4XDTIyMDUwNjAxMjU1MVoXDTMyMDUw
MzAxMjU1MVowFTETMBEGA1UEAwwKY2xpZW50LXZwbjCCASIwDQYJKoZIhvcNAQEB
BQADggEPADCCAQoCggEBALbA/1yRyEWE391P+4a0/L9lINFb7tirtEzLbxmsJVVB
3SbCl21L/94g+ZUw0LmgwD4RTy3IoSGblmRcZ9KQZ4fTHTlEvSFcW3Oj2XoJsSs+
+QzPJ1Lh3db0nrTuGUe8ZwtFE2S1q31PwGATBQbmaSAgQPTX8YidQZKStQwUazER
Ojikr4mEhNidCQ15KGi33OqQHxZODuDvlu7EDrKRyZ47yVtW+WOIL/JtoWGJo9B6
50S7BhGYwIh7s8pUVllpfdJ5r5DQ8TlutF1+AUoA/Cvy7lS7lffKyRTbyd65KFGL
/9h5C+YUSFV4YN8HMl3EP2Z7xI+gsKPh7RkbhwPlhOECAwEAAaOBpDCBoTAJBgNV
HRMEAjAAMB0GA1UdDgQWBBSwuchfFY1KRdKnxPzt+Lc1S9gc9jBTBgNVHSMETDBK
gBTkcFCRWfIhnijNvy6f7q4rsgeiP6EcpBowGDEWMBQGA1UEAwwNdnBuLml0Yi5h
Yy5pZIIUY/WbMr9vzidEL/ohSLaRjlNyCjcwEwYDVR0lBAwwCgYIKwYBBQUHAwIw
CwYDVR0PBAQDAgeAMA0GCSqGSIb3DQEBCwUAA4IBAQBjaCiAylcK/ab6YsPtmXCD
Fl77GBa5vckjCZcsUZbllugIVNSArXP9ahx+xsSvaEyyeABZanMpNrwl+RiwkzlH
rcBxZ4AwBOoj4scmDRRFSEMEMNe9C89epMuNHQQe1Bu+0SibYTEZeRgxT3KMA77x
OFDdTqQ1e/TCT6/Mp5oNv4q4fluZEZZm0T3q11/IZuMBSVOMhXw4jqKkQ4EFXnKt
u60hZ0jcOA3lSrar1p0G9Nty2CSbBH1XYQerUZeJFPaprSUiqvdA8HjZkmZFkOpd
t7odLPYIxSFs5Uazz3c8MO8qjev56HrC7Z/jemDUvKguiYX68Bid7oSFITyeFCNO
-----END CERTIFICATE-----
